; Function Attrs: mustprogress nofree norecurse nosync nounwind willreturn memory(readwrite, inaccessiblemem: none) uwtable
define dso_local noundef ptr @_PyGen_yf(ptr noundef readonly captures(none) %0) local_unnamed_addr #0 {
  %2 = getelementptr inbounds nuw i8, ptr %0, i64 67
  %3 = load i8, ptr %2, align 1, !tbaa !7
  %4 = icmp eq i8 %3, -1
  br i1 %4, label %5, label %_Py_NewRef.exit

5:                                                ; preds = %1
  %6 = getelementptr i8, ptr %0, i64 136
  %.val = load ptr, ptr %6, align 8, !tbaa !29
  %7 = getelementptr i8, ptr %.val, i64 -8
  %.val.val = load i64, ptr %7, align 8, !tbaa !4
  %8 = inttoptr i64 %.val.val to ptr
  %9 = load i32, ptr %8, align 8, !tbaa !4
  %10 = icmp slt i32 %9, 0
  br i1 %10, label %_Py_NewRef.exit, label %11

11:                                               ; preds = %5
  %12 = add nuw i32 %9, 1
  store i32 %12, ptr %8, align 8, !tbaa !4
  br label %_Py_NewRef.exit

_Py_NewRef.exit:                                  ; preds = %11, %5, %1
  %.0 = phi ptr [ null, %1 ], [ %8, %5 ], [ %8, %11 ]
  ret ptr %.0
}